; Function Attrs: nounwind uwtable
define i32 @Gia_ManCube(ptr noundef %0, i32 noundef %1, i32 noundef %2, ptr noundef readonly captures(none) %3) local_unnamed_addr #2 {
  %5 = icmp sgt i32 %2, 0
  br i1 %5, label %.lr.ph, label %._crit_edge

.lr.ph:                                           ; preds = %4
  %6 = xor i32 %1, -1
  %wide.trip.count = zext nneg i32 %2 to i64
  br label %7

7:                                                ; preds = %.lr.ph, %7
  %indvars.iv = phi i64 [ 0, %.lr.ph ], [ %indvars.iv.next, %7 ]
  %.011 = phi i32 [ 1, %.lr.ph ], [ %14, %7 ]
  %8 = getelementptr inbounds nuw i32, ptr %3, i64 %indvars.iv
  %9 = load i32, ptr %8, align 4, !tbaa !11
  %10 = trunc nuw nsw i64 %indvars.iv to i32
  %11 = lshr i32 %6, %10
  %12 = and i32 %11, 1
  %13 = xor i32 %9, %12
  %14 = tail call i32 @Gia_ManHashAnd(ptr noundef %0, i32 noundef %.011, i32 noundef %13)
  %indvars.iv.next = add nuw nsw i64 %indvars.iv, 1
  %exitcond.not = icmp eq i64 %indvars.iv.next, %wide.trip.count
  br i1 %exitcond.not, label %._crit_edge, label %7, !llvm.loop !78

._crit_edge:                                      ; preds = %7, %4
  %.0.lcssa = phi i32 [ 1, %4 ], [ %14, %7 ]
  ret i32 %.0.lcssa
}